Archive member included to satisfy reference by file (symbol)

/usr/local/Cellar/avr-gcc/9.1.0/lib/avr-gcc/9/gcc/avr/9.1.0/avr5/libgcc.a(_udivmodhi4.o)
                              main.o (__udivmodhi4)
/usr/local/Cellar/avr-gcc/9.1.0/lib/avr-gcc/9/gcc/avr/9.1.0/avr5/libgcc.a(_udivmodsi4.o)
                              main.o (__udivmodsi4)
/usr/local/Cellar/avr-gcc/9.1.0/lib/avr-gcc/9/gcc/avr/9.1.0/avr5/libgcc.a(_exit.o)
                              /usr/local/Cellar/avr-gcc/9.1.0/lib/avr-gcc/9/gcc/avr/9.1.0/../../../../../../avr/lib/avr5/crtatmega162.o (exit)
/usr/local/Cellar/avr-gcc/9.1.0/lib/avr-gcc/9/gcc/avr/9.1.0/avr5/libgcc.a(_tablejump2.o)
                              main.o (__tablejump2__)
/usr/local/Cellar/avr-gcc/9.1.0/lib/avr-gcc/9/gcc/avr/9.1.0/avr5/libgcc.a(_copy_data.o)
                              midi.o (__do_copy_data)
/usr/local/Cellar/avr-gcc/9.1.0/lib/avr-gcc/9/gcc/avr/9.1.0/avr5/libgcc.a(_clear_bss.o)
                              main.o (__do_clear_bss)

Allocating common symbols
Common symbol       size              file

track_buff          0x20              track_edit.o
next_chain          0x20              pattern_play.o
last_func           0x1               switch.o
play_loaded_track   0x1               track_edit.o
next_random_note    0x1               main.o
track_bank          0x1               track_edit.o
curr_chain          0x20              pattern_play.o
curr_note           0x1               main.o
midi_out_addr       0x1               midi.o
curr_chain_index    0x1               pattern_play.o
curr_pattern_index  0x1               pattern_edit.o
tempo               0x2               main.o
curr_patt           0x2               track_edit.o
in_run_mode         0x1               track_edit.o
in_stepwrite_mode   0x1               track_edit.o
last_bank           0x1               switch.o
pressed_switches    0x3               switch.o
playing             0x1               pattern_play.o
newtempo            0x2               main.o
function            0x1               switch.o
in_runwrite_mode    0x1               pattern_edit.o
switches            0x3               switch.o
patt_location       0x1               pattern_edit.o
rand                0x1               main.o
tx_msg_buff         0x40              compcontrol.o
released_switches   0x3               switch.o
play_loaded_pattern
                    0x1               pattern_edit.o
timer3_init         0x2               main.o
bank                0x1               switch.o
recv_msg_buff       0x40              compcontrol.o
track_location      0x1               track_edit.o
midi_q              0x20              midi.o
patt_bank           0x1               pattern_edit.o
curr_track_index    0x1               track_edit.o
pattern_buff        0x10              pattern_edit.o
buff_chain          0x20              pattern_play.o
last_switches       0x3               switch.o
midi_in_addr        0x1               midi.o
last_tempo          0x1               main.o

Memory Configuration

Name             Origin             Length             Attributes
text             0x0000000000000000 0x0000000000020000 xr
data             0x0000000000800060 0x000000000000ffa0 rw !x
eeprom           0x0000000000810000 0x0000000000010000 rw !x
fuse             0x0000000000820000 0x0000000000000400 rw !x
lock             0x0000000000830000 0x0000000000000400 rw !x
signature        0x0000000000840000 0x0000000000000400 rw !x
user_signatures  0x0000000000850000 0x0000000000000400 rw !x
*default*        0x0000000000000000 0xffffffffffffffff

Linker script and memory map

Address of section .data set to 0x800100
LOAD /usr/local/Cellar/avr-gcc/9.1.0/lib/avr-gcc/9/gcc/avr/9.1.0/../../../../../../avr/lib/avr5/crtatmega162.o
LOAD main.o
LOAD delay.o
LOAD midi.o
LOAD dinsync.o
LOAD switch.o
LOAD led.o
LOAD compcontrol.o
LOAD synth.o
LOAD keyboard.o
LOAD eeprom.o
LOAD track_edit.o
LOAD pattern_edit.o
LOAD pattern_play.o
LOAD /usr/local/Cellar/avr-gcc/9.1.0/lib/avr-gcc/9/gcc/avr/9.1.0/../../../../../../avr/lib/avr5/libm.a
START GROUP
LOAD /usr/local/Cellar/avr-gcc/9.1.0/lib/avr-gcc/9/gcc/avr/9.1.0/avr5/libgcc.a
LOAD /usr/local/Cellar/avr-gcc/9.1.0/lib/avr-gcc/9/gcc/avr/9.1.0/../../../../../../avr/lib/avr5/libm.a
LOAD /usr/local/Cellar/avr-gcc/9.1.0/lib/avr-gcc/9/gcc/avr/9.1.0/../../../../../../avr/lib/avr5/libc.a
LOAD /usr/local/Cellar/avr-gcc/9.1.0/lib/avr-gcc/9/gcc/avr/9.1.0/../../../../../../avr/lib/avr5/libatmega162.a
END GROUP
                0x0000000000020000                __TEXT_REGION_LENGTH__ = DEFINED (__TEXT_REGION_LENGTH__)?__TEXT_REGION_LENGTH__:0x20000
                0x000000000000ffa0                __DATA_REGION_LENGTH__ = DEFINED (__DATA_REGION_LENGTH__)?__DATA_REGION_LENGTH__:0xffa0
                0x0000000000010000                __EEPROM_REGION_LENGTH__ = DEFINED (__EEPROM_REGION_LENGTH__)?__EEPROM_REGION_LENGTH__:0x10000
                0x0000000000000400                __FUSE_REGION_LENGTH__ = DEFINED (__FUSE_REGION_LENGTH__)?__FUSE_REGION_LENGTH__:0x400
                0x0000000000000400                __LOCK_REGION_LENGTH__ = DEFINED (__LOCK_REGION_LENGTH__)?__LOCK_REGION_LENGTH__:0x400
                0x0000000000000400                __SIGNATURE_REGION_LENGTH__ = DEFINED (__SIGNATURE_REGION_LENGTH__)?__SIGNATURE_REGION_LENGTH__:0x400
                0x0000000000000400                __USER_SIGNATURE_REGION_LENGTH__ = DEFINED (__USER_SIGNATURE_REGION_LENGTH__)?__USER_SIGNATURE_REGION_LENGTH__:0x400

.hash
 *(.hash)

.dynsym
 *(.dynsym)

.dynstr
 *(.dynstr)

.gnu.version
 *(.gnu.version)

.gnu.version_d
 *(.gnu.version_d)

.gnu.version_r
 *(.gnu.version_r)

.rel.init
 *(.rel.init)

.rela.init
 *(.rela.init)

.rel.text
 *(.rel.text)
 *(.rel.text.*)
 *(.rel.gnu.linkonce.t*)

.rela.text
 *(.rela.text)
 *(.rela.text.*)
 *(.rela.gnu.linkonce.t*)

.rel.fini
 *(.rel.fini)

.rela.fini
 *(.rela.fini)

.rel.rodata
 *(.rel.rodata)
 *(.rel.rodata.*)
 *(.rel.gnu.linkonce.r*)

.rela.rodata
 *(.rela.rodata)
 *(.rela.rodata.*)
 *(.rela.gnu.linkonce.r*)

.rel.data
 *(.rel.data)
 *(.rel.data.*)
 *(.rel.gnu.linkonce.d*)

.rela.data
 *(.rela.data)
 *(.rela.data.*)
 *(.rela.gnu.linkonce.d*)

.rel.ctors
 *(.rel.ctors)

.rela.ctors
 *(.rela.ctors)

.rel.dtors
 *(.rel.dtors)

.rela.dtors
 *(.rela.dtors)

.rel.got
 *(.rel.got)

.rela.got
 *(.rela.got)

.rel.bss
 *(.rel.bss)

.rela.bss
 *(.rela.bss)

.rel.plt
 *(.rel.plt)

.rela.plt
 *(.rela.plt)

.text           0x0000000000000000     0x356a
 *(.vectors)
 .vectors       0x0000000000000000       0x70 /usr/local/Cellar/avr-gcc/9.1.0/lib/avr-gcc/9/gcc/avr/9.1.0/../../../../../../avr/lib/avr5/crtatmega162.o
                0x0000000000000000                __vectors
                0x0000000000000000                __vector_default
 *(.vectors)
 *(.progmem.gcc*)
                0x0000000000000070                . = ALIGN (0x2)
                0x0000000000000070                __trampolines_start = .
 *(.trampolines)
 .trampolines   0x0000000000000070        0x0 linker stubs
 *(.trampolines*)
                0x0000000000000070                __trampolines_end = .
 *libprintf_flt.a:*(.progmem.data)
 *libc.a:*(.progmem.data)
 *(.progmem.*)
                0x0000000000000070                . = ALIGN (0x2)
 *(.lowtext)
 *(.lowtext*)
                0x0000000000000070                __ctors_start = .
 *(.ctors)
                0x0000000000000070                __ctors_end = .
                0x0000000000000070                __dtors_start = .
 *(.dtors)
                0x0000000000000070                __dtors_end = .
 SORT_BY_NAME(*)(.ctors)
 SORT_BY_NAME(*)(.dtors)
 *(.init0)
 .init0         0x0000000000000070        0x0 /usr/local/Cellar/avr-gcc/9.1.0/lib/avr-gcc/9/gcc/avr/9.1.0/../../../../../../avr/lib/avr5/crtatmega162.o
                0x0000000000000070                __init
 *(.init0)
 *(.init1)
 *(.init1)
 *(.init2)
 .init2         0x0000000000000070        0xc /usr/local/Cellar/avr-gcc/9.1.0/lib/avr-gcc/9/gcc/avr/9.1.0/../../../../../../avr/lib/avr5/crtatmega162.o
 *(.init2)
 *(.init3)
 *(.init3)
 *(.init4)
 .init4         0x000000000000007c       0x16 /usr/local/Cellar/avr-gcc/9.1.0/lib/avr-gcc/9/gcc/avr/9.1.0/avr5/libgcc.a(_copy_data.o)
                0x000000000000007c                __do_copy_data
 .init4         0x0000000000000092       0x10 /usr/local/Cellar/avr-gcc/9.1.0/lib/avr-gcc/9/gcc/avr/9.1.0/avr5/libgcc.a(_clear_bss.o)
                0x0000000000000092                __do_clear_bss
 *(.init4)
 *(.init5)
 *(.init5)
 *(.init6)
 *(.init6)
 *(.init7)
 *(.init7)
 *(.init8)
 *(.init8)
 *(.init9)
 .init9         0x00000000000000a2        0x8 /usr/local/Cellar/avr-gcc/9.1.0/lib/avr-gcc/9/gcc/avr/9.1.0/../../../../../../avr/lib/avr5/crtatmega162.o
 *(.init9)
 *(.text)
 .text          0x00000000000000aa        0x4 /usr/local/Cellar/avr-gcc/9.1.0/lib/avr-gcc/9/gcc/avr/9.1.0/../../../../../../avr/lib/avr5/crtatmega162.o
                0x00000000000000aa                __vector_18
                0x00000000000000aa                __vector_1
                0x00000000000000aa                __vector_24
                0x00000000000000aa                __vector_12
                0x00000000000000aa                __bad_interrupt
                0x00000000000000aa                __vector_6
                0x00000000000000aa                __vector_3
                0x00000000000000aa                __vector_23
                0x00000000000000aa                __vector_25
                0x00000000000000aa                __vector_11
                0x00000000000000aa                __vector_13
                0x00000000000000aa                __vector_17
                0x00000000000000aa                __vector_7
                0x00000000000000aa                __vector_27
                0x00000000000000aa                __vector_5
                0x00000000000000aa                __vector_2
                0x00000000000000aa                __vector_21
                0x00000000000000aa                __vector_15
                0x00000000000000aa                __vector_8
                0x00000000000000aa                __vector_26
                0x00000000000000aa                __vector_14
                0x00000000000000aa                __vector_10
                0x00000000000000aa                __vector_22
 .text          0x00000000000000ae      0xb90 main.o
                0x00000000000000ae                __vector_4
                0x0000000000000130                init_timer0
                0x0000000000000140                init_timer2
                0x0000000000000150                turn_on_tempo
                0x000000000000015c                turn_off_tempo
                0x000000000000016e                is_tempo_running
                0x000000000000017a                __vector_16
                0x00000000000002b0                random
                0x00000000000002e4                do_tempo
                0x000000000000091a                __vector_9
                0x0000000000000972                uart_putchar
                0x000000000000097e                putstring
                0x0000000000000996                putnum_ud
                0x0000000000000a26                printhex
                0x0000000000000a36                putnum_uh
                0x0000000000000a76                uart_getch
                0x0000000000000a8a                uart_getchar
                0x0000000000000a94                internal_eeprom_read8
                0x0000000000000aa4                internal_eeprom_write8
                0x0000000000000aba                change_tempo
                0x0000000000000bb2                init_tempo
                0x0000000000000bf4                ioinit
 .text          0x0000000000000c3e       0x38 delay.o
                0x0000000000000c3e                delay_ms
                0x0000000000000c50                delay_s
 .text          0x0000000000000c76      0x2e8 midi.o
                0x0000000000000c76                __vector_19
                0x0000000000000d0a                get_midi_addr
                0x0000000000000d18                init_midi
                0x0000000000000d2e                midi_note_off
                0x0000000000000d44                midi_note_on
                0x0000000000000d7a                midi_putchar
                0x0000000000000d86                midi_send_note_on
                0x0000000000000db2                midi_send_note_off
                0x0000000000000dd8                midi_getch
                0x0000000000000dee                midi_getchar
                0x0000000000000e20                midi_recv_cmd
                0x0000000000000e54                midi_notesoff
                0x0000000000000e6a                do_midi_mode
                0x0000000000000f4a                midi_stop
 .text          0x0000000000000f5e       0xb8 dinsync.o
                0x0000000000000f5e                dinsync_start
                0x0000000000000fa6                dinsync_stop
                0x0000000000000fb2                dinsync_started
                0x0000000000000fd6                dinsync_stopped
                0x0000000000000ffa                dinsync_set_out
                0x0000000000001008                dinsync_set_in
 .text          0x0000000000001016      0x340 switch.o
                0x0000000000001016                read_keypad
                0x000000000000103c                select_bank_read
                0x0000000000001040                select_func_read
                0x0000000000001044                read_bank
                0x000000000000107c                read_function
                0x0000000000001086                read_switches
                0x0000000000001226                is_pressed
                0x0000000000001254                just_pressed
                0x0000000000001282                just_released
                0x00000000000012b0                no_keys_pressed
                0x00000000000012c8                get_lowest_notekey_pressed
                0x00000000000012f4                get_lowest_numkey_pressed
                0x0000000000001320                get_lowest_numkey_just_pressed
                0x000000000000134c                has_bank_knob_changed
 .text          0x0000000000001356      0x4e4 led.o
                0x000000000000137e                set_led
                0x00000000000013a6                set_led_blink
                0x00000000000013ce                clear_led_blink
                0x00000000000013fa                is_led_blink
                0x0000000000001424                clear_led
                0x000000000000142e                is_led_set
                0x0000000000001456                clear_all_leds
                0x0000000000001474                clear_bank_leds
                0x0000000000001490                set_bank_led
                0x00000000000014a4                set_bank_led_blink
                0x00000000000014b8                is_bank_led_set
                0x00000000000014d0                is_bank_led_blink
                0x00000000000014e6                set_key_led
                0x00000000000014fa                set_key_led_blink
                0x000000000000150e                clear_key_led
                0x0000000000001522                clear_key_leds
                0x000000000000153e                set_numkey_led
                0x0000000000001556                set_single_numkey_led
                0x000000000000158a                clear_numkey_led
                0x00000000000015a2                set_numkey_led_blink
                0x00000000000015ba                is_numkey_led_blink
                0x00000000000015d4                is_numkey_led_set
                0x00000000000015f0                clear_numkey_leds
                0x000000000000160c                set_notekey_led
                0x0000000000001620                clear_notekey_led
                0x0000000000001634                set_notekey_led_blink
                0x0000000000001648                is_notekey_led_blink
                0x0000000000001656                clear_notekey_leds
                0x0000000000001672                clear_note_leds
                0x0000000000001694                clock_leds
                0x00000000000016b2                blink_leds_on
                0x00000000000016d8                blink_leds_off
                0x0000000000001700                clear_blinking_leds
                0x0000000000001734                display_octave_shift
                0x000000000000177a                set_note_led
 .text          0x000000000000183a      0x2ec compcontrol.o
                0x000000000000183a                send_msg
                0x0000000000001862                do_computer_control
                0x0000000000001876                calc_CRC8
                0x00000000000018aa                send_status
                0x00000000000018d8                send_tempo
                0x000000000000190e                __vector_20
 .text          0x0000000000001b26       0x3a synth.o
                0x0000000000001b26                note_on
                0x0000000000001b52                note_off
 .text          0x0000000000001b60      0x15e keyboard.o
                0x0000000000001b60                do_keyboard_mode
 .text          0x0000000000001cbe       0xa6 eeprom.o
                0x0000000000001cbe                spieeprom_write
                0x0000000000001d36                spieeprom_read
 .text          0x0000000000001d64      0x7a6 track_edit.o
                0x0000000000001d64                get_pitchshift_from_patt
                0x0000000000001d6e                display_curr_pitch_shift_ud
                0x0000000000001d9a                start_track_stepwrite_mode
                0x0000000000001daa                stop_track_stepwrite_mode
                0x0000000000001dc6                load_curr_patt
                0x0000000000001e0c                start_track_run_mode
                0x0000000000001e66                stop_track_run_mode
                0x0000000000001e84                load_track
                0x0000000000001efa                write_track
                0x0000000000001f66                do_track_edit
 .text          0x000000000000250a      0x762 pattern_edit.o
                0x000000000000250a                load_pattern
                0x0000000000002568                write_pattern
                0x00000000000025bc                start_runwrite_mode
                0x00000000000025f2                stop_runwrite_mode
                0x0000000000002624                start_stepwrite_mode
                0x0000000000002640                stop_stepwrite_mode
                0x000000000000266e                do_pattern_edit
 .text          0x0000000000002c6c      0x778 pattern_play.o
                0x0000000000002c6c                chains_equiv
                0x0000000000002c9e                do_patterntrack_play
 .text          0x00000000000033e4        0x0 /usr/local/Cellar/avr-gcc/9.1.0/lib/avr-gcc/9/gcc/avr/9.1.0/avr5/libgcc.a(_udivmodhi4.o)
 .text          0x00000000000033e4        0x0 /usr/local/Cellar/avr-gcc/9.1.0/lib/avr-gcc/9/gcc/avr/9.1.0/avr5/libgcc.a(_udivmodsi4.o)
 .text          0x00000000000033e4        0x0 /usr/local/Cellar/avr-gcc/9.1.0/lib/avr-gcc/9/gcc/avr/9.1.0/avr5/libgcc.a(_exit.o)
 .text          0x00000000000033e4        0x0 /usr/local/Cellar/avr-gcc/9.1.0/lib/avr-gcc/9/gcc/avr/9.1.0/avr5/libgcc.a(_tablejump2.o)
 .text          0x00000000000033e4        0x0 /usr/local/Cellar/avr-gcc/9.1.0/lib/avr-gcc/9/gcc/avr/9.1.0/avr5/libgcc.a(_copy_data.o)
 .text          0x00000000000033e4        0x0 /usr/local/Cellar/avr-gcc/9.1.0/lib/avr-gcc/9/gcc/avr/9.1.0/avr5/libgcc.a(_clear_bss.o)
                0x00000000000033e4                . = ALIGN (0x2)
 *(.text.*)
 .text.startup  0x00000000000033e4       0xae main.o
                0x00000000000033e4                main
 .text.libgcc.mul
                0x0000000000003492        0x0 /usr/local/Cellar/avr-gcc/9.1.0/lib/avr-gcc/9/gcc/avr/9.1.0/avr5/libgcc.a(_udivmodhi4.o)
 .text.libgcc.div
                0x0000000000003492       0x28 /usr/local/Cellar/avr-gcc/9.1.0/lib/avr-gcc/9/gcc/avr/9.1.0/avr5/libgcc.a(_udivmodhi4.o)
                0x0000000000003492                __udivmodhi4
 .text.libgcc   0x00000000000034ba        0x0 /usr/local/Cellar/avr-gcc/9.1.0/lib/avr-gcc/9/gcc/avr/9.1.0/avr5/libgcc.a(_udivmodhi4.o)
 .text.libgcc.prologue
                0x00000000000034ba        0x0 /usr/local/Cellar/avr-gcc/9.1.0/lib/avr-gcc/9/gcc/avr/9.1.0/avr5/libgcc.a(_udivmodhi4.o)
 .text.libgcc.builtins
                0x00000000000034ba        0x0 /usr/local/Cellar/avr-gcc/9.1.0/lib/avr-gcc/9/gcc/avr/9.1.0/avr5/libgcc.a(_udivmodhi4.o)
 .text.libgcc.fmul
                0x00000000000034ba        0x0 /usr/local/Cellar/avr-gcc/9.1.0/lib/avr-gcc/9/gcc/avr/9.1.0/avr5/libgcc.a(_udivmodhi4.o)
 .text.libgcc.fixed
                0x00000000000034ba        0x0 /usr/local/Cellar/avr-gcc/9.1.0/lib/avr-gcc/9/gcc/avr/9.1.0/avr5/libgcc.a(_udivmodhi4.o)
 .text.libgcc.mul
                0x00000000000034ba        0x0 /usr/local/Cellar/avr-gcc/9.1.0/lib/avr-gcc/9/gcc/avr/9.1.0/avr5/libgcc.a(_udivmodsi4.o)
 .text.libgcc.div
                0x00000000000034ba       0x44 /usr/local/Cellar/avr-gcc/9.1.0/lib/avr-gcc/9/gcc/avr/9.1.0/avr5/libgcc.a(_udivmodsi4.o)
                0x00000000000034ba                __udivmodsi4
 .text.libgcc   0x00000000000034fe        0x0 /usr/local/Cellar/avr-gcc/9.1.0/lib/avr-gcc/9/gcc/avr/9.1.0/avr5/libgcc.a(_udivmodsi4.o)
 .text.libgcc.prologue
                0x00000000000034fe        0x0 /usr/local/Cellar/avr-gcc/9.1.0/lib/avr-gcc/9/gcc/avr/9.1.0/avr5/libgcc.a(_udivmodsi4.o)
 .text.libgcc.builtins
                0x00000000000034fe        0x0 /usr/local/Cellar/avr-gcc/9.1.0/lib/avr-gcc/9/gcc/avr/9.1.0/avr5/libgcc.a(_udivmodsi4.o)
 .text.libgcc.fmul
                0x00000000000034fe        0x0 /usr/local/Cellar/avr-gcc/9.1.0/lib/avr-gcc/9/gcc/avr/9.1.0/avr5/libgcc.a(_udivmodsi4.o)
 .text.libgcc.fixed
                0x00000000000034fe        0x0 /usr/local/Cellar/avr-gcc/9.1.0/lib/avr-gcc/9/gcc/avr/9.1.0/avr5/libgcc.a(_udivmodsi4.o)
 .text.libgcc.mul
                0x00000000000034fe        0x0 /usr/local/Cellar/avr-gcc/9.1.0/lib/avr-gcc/9/gcc/avr/9.1.0/avr5/libgcc.a(_exit.o)
 .text.libgcc.div
                0x00000000000034fe        0x0 /usr/local/Cellar/avr-gcc/9.1.0/lib/avr-gcc/9/gcc/avr/9.1.0/avr5/libgcc.a(_exit.o)
 .text.libgcc   0x00000000000034fe        0x0 /usr/local/Cellar/avr-gcc/9.1.0/lib/avr-gcc/9/gcc/avr/9.1.0/avr5/libgcc.a(_exit.o)
 .text.libgcc.prologue
                0x00000000000034fe        0x0 /usr/local/Cellar/avr-gcc/9.1.0/lib/avr-gcc/9/gcc/avr/9.1.0/avr5/libgcc.a(_exit.o)
 .text.libgcc.builtins
                0x00000000000034fe        0x0 /usr/local/Cellar/avr-gcc/9.1.0/lib/avr-gcc/9/gcc/avr/9.1.0/avr5/libgcc.a(_exit.o)
 .text.libgcc.fmul
                0x00000000000034fe        0x0 /usr/local/Cellar/avr-gcc/9.1.0/lib/avr-gcc/9/gcc/avr/9.1.0/avr5/libgcc.a(_exit.o)
 .text.libgcc.fixed
                0x00000000000034fe        0x0 /usr/local/Cellar/avr-gcc/9.1.0/lib/avr-gcc/9/gcc/avr/9.1.0/avr5/libgcc.a(_exit.o)
 .text.libgcc.mul
                0x00000000000034fe        0x0 /usr/local/Cellar/avr-gcc/9.1.0/lib/avr-gcc/9/gcc/avr/9.1.0/avr5/libgcc.a(_tablejump2.o)
 .text.libgcc.div
                0x00000000000034fe        0x0 /usr/local/Cellar/avr-gcc/9.1.0/lib/avr-gcc/9/gcc/avr/9.1.0/avr5/libgcc.a(_tablejump2.o)
 .text.libgcc   0x00000000000034fe        0xc /usr/local/Cellar/avr-gcc/9.1.0/lib/avr-gcc/9/gcc/avr/9.1.0/avr5/libgcc.a(_tablejump2.o)
                0x00000000000034fe                __tablejump2__
 .text.libgcc.prologue
                0x000000000000350a        0x0 /usr/local/Cellar/avr-gcc/9.1.0/lib/avr-gcc/9/gcc/avr/9.1.0/avr5/libgcc.a(_tablejump2.o)
 .text.libgcc.builtins
                0x000000000000350a        0x0 /usr/local/Cellar/avr-gcc/9.1.0/lib/avr-gcc/9/gcc/avr/9.1.0/avr5/libgcc.a(_tablejump2.o)
 .text.libgcc.fmul
                0x000000000000350a        0x0 /usr/local/Cellar/avr-gcc/9.1.0/lib/avr-gcc/9/gcc/avr/9.1.0/avr5/libgcc.a(_tablejump2.o)
 .text.libgcc.fixed
                0x000000000000350a        0x0 /usr/local/Cellar/avr-gcc/9.1.0/lib/avr-gcc/9/gcc/avr/9.1.0/avr5/libgcc.a(_tablejump2.o)
 .text.libgcc.mul
                0x000000000000350a        0x0 /usr/local/Cellar/avr-gcc/9.1.0/lib/avr-gcc/9/gcc/avr/9.1.0/avr5/libgcc.a(_copy_data.o)
 .text.libgcc.div
                0x000000000000350a        0x0 /usr/local/Cellar/avr-gcc/9.1.0/lib/avr-gcc/9/gcc/avr/9.1.0/avr5/libgcc.a(_copy_data.o)
 .text.libgcc   0x000000000000350a        0x0 /usr/local/Cellar/avr-gcc/9.1.0/lib/avr-gcc/9/gcc/avr/9.1.0/avr5/libgcc.a(_copy_data.o)
 .text.libgcc.prologue
                0x000000000000350a        0x0 /usr/local/Cellar/avr-gcc/9.1.0/lib/avr-gcc/9/gcc/avr/9.1.0/avr5/libgcc.a(_copy_data.o)
 .text.libgcc.builtins
                0x000000000000350a        0x0 /usr/local/Cellar/avr-gcc/9.1.0/lib/avr-gcc/9/gcc/avr/9.1.0/avr5/libgcc.a(_copy_data.o)
 .text.libgcc.fmul
                0x000000000000350a        0x0 /usr/local/Cellar/avr-gcc/9.1.0/lib/avr-gcc/9/gcc/avr/9.1.0/avr5/libgcc.a(_copy_data.o)
 .text.libgcc.fixed
                0x000000000000350a        0x0 /usr/local/Cellar/avr-gcc/9.1.0/lib/avr-gcc/9/gcc/avr/9.1.0/avr5/libgcc.a(_copy_data.o)
 .text.libgcc.mul
                0x000000000000350a        0x0 /usr/local/Cellar/avr-gcc/9.1.0/lib/avr-gcc/9/gcc/avr/9.1.0/avr5/libgcc.a(_clear_bss.o)
 .text.libgcc.div
                0x000000000000350a        0x0 /usr/local/Cellar/avr-gcc/9.1.0/lib/avr-gcc/9/gcc/avr/9.1.0/avr5/libgcc.a(_clear_bss.o)
 .text.libgcc   0x000000000000350a        0x0 /usr/local/Cellar/avr-gcc/9.1.0/lib/avr-gcc/9/gcc/avr/9.1.0/avr5/libgcc.a(_clear_bss.o)
 .text.libgcc.prologue
                0x000000000000350a        0x0 /usr/local/Cellar/avr-gcc/9.1.0/lib/avr-gcc/9/gcc/avr/9.1.0/avr5/libgcc.a(_clear_bss.o)
 .text.libgcc.builtins
                0x000000000000350a        0x0 /usr/local/Cellar/avr-gcc/9.1.0/lib/avr-gcc/9/gcc/avr/9.1.0/avr5/libgcc.a(_clear_bss.o)
 .text.libgcc.fmul
                0x000000000000350a        0x0 /usr/local/Cellar/avr-gcc/9.1.0/lib/avr-gcc/9/gcc/avr/9.1.0/avr5/libgcc.a(_clear_bss.o)
 .text.libgcc.fixed
                0x000000000000350a        0x0 /usr/local/Cellar/avr-gcc/9.1.0/lib/avr-gcc/9/gcc/avr/9.1.0/avr5/libgcc.a(_clear_bss.o)
                0x000000000000350a                . = ALIGN (0x2)
 *(.fini9)
 .fini9         0x000000000000350a        0x0 /usr/local/Cellar/avr-gcc/9.1.0/lib/avr-gcc/9/gcc/avr/9.1.0/avr5/libgcc.a(_exit.o)
                0x000000000000350a                exit
                0x000000000000350a                _exit
 *(.fini9)
 *(.fini8)
 *(.fini8)
 *(.fini7)
 *(.fini7)
 *(.fini6)
 *(.fini6)
 *(.fini5)
 *(.fini5)
 *(.fini4)
 *(.fini4)
 *(.fini3)
 *(.fini3)
 *(.fini2)
 *(.fini2)
 *(.fini1)
 *(.fini1)
 *(.fini0)
 .fini0         0x000000000000350a        0x4 /usr/local/Cellar/avr-gcc/9.1.0/lib/avr-gcc/9/gcc/avr/9.1.0/avr5/libgcc.a(_exit.o)
 *(.fini0)
 *(.hightext)
 *(.hightext*)
 *(.progmemx.*)
                0x000000000000350e                . = ALIGN (0x2)
 *(.jumptables)
 *(.jumptables*)
 .jumptables.gcc.do_tempo
                0x000000000000350e       0x3c main.o
 .jumptables.gcc.main
                0x000000000000354a       0x20 main.o
                0x000000000000356a                _etext = .

.data           0x0000000000800100      0x164 load address 0x000000000000356a
                0x0000000000800100                PROVIDE (__data_start = .)
 *(.data)
 .data          0x0000000000800100        0x0 /usr/local/Cellar/avr-gcc/9.1.0/lib/avr-gcc/9/gcc/avr/9.1.0/../../../../../../avr/lib/avr5/crtatmega162.o
 .data          0x0000000000800100        0x0 main.o
 .data          0x0000000000800100        0x0 delay.o
 .data          0x0000000000800100        0x3 midi.o
                0x0000000000800100                midion_noaccent_velocity
                0x0000000000800101                midioff_velocity
                0x0000000000800102                midion_accent_velocity
 .data          0x0000000000800103        0x0 dinsync.o
 .data          0x0000000000800103        0x0 switch.o
 .data          0x0000000000800103        0x0 led.o
 .data          0x0000000000800103        0x1 compcontrol.o
                0x0000000000800103                CTS
 .data          0x0000000000800104        0x0 synth.o
 .data          0x0000000000800104        0x0 keyboard.o
 .data          0x0000000000800104        0x0 eeprom.o
 .data          0x0000000000800104        0x0 track_edit.o
 .data          0x0000000000800104        0x0 pattern_edit.o
 .data          0x0000000000800104        0x0 pattern_play.o
 .data          0x0000000000800104        0x0 /usr/local/Cellar/avr-gcc/9.1.0/lib/avr-gcc/9/gcc/avr/9.1.0/avr5/libgcc.a(_udivmodhi4.o)
 .data          0x0000000000800104        0x0 /usr/local/Cellar/avr-gcc/9.1.0/lib/avr-gcc/9/gcc/avr/9.1.0/avr5/libgcc.a(_udivmodsi4.o)
 .data          0x0000000000800104        0x0 /usr/local/Cellar/avr-gcc/9.1.0/lib/avr-gcc/9/gcc/avr/9.1.0/avr5/libgcc.a(_exit.o)
 .data          0x0000000000800104        0x0 /usr/local/Cellar/avr-gcc/9.1.0/lib/avr-gcc/9/gcc/avr/9.1.0/avr5/libgcc.a(_tablejump2.o)
 .data          0x0000000000800104        0x0 /usr/local/Cellar/avr-gcc/9.1.0/lib/avr-gcc/9/gcc/avr/9.1.0/avr5/libgcc.a(_copy_data.o)
 .data          0x0000000000800104        0x0 /usr/local/Cellar/avr-gcc/9.1.0/lib/avr-gcc/9/gcc/avr/9.1.0/avr5/libgcc.a(_clear_bss.o)
 *(.data*)
 *(.gnu.linkonce.d*)
 *(.rodata)
 .rodata        0x0000000000800104       0x15 switch.o
 .rodata        0x0000000000800119       0x3d led.o
 .rodata        0x0000000000800156      0x100 compcontrol.o
                0x0000000000800156                CRC8Table
 .rodata        0x0000000000800256        0xd keyboard.o
 *(.rodata*)
 *(.gnu.linkonce.r*)
                0x0000000000800264                . = ALIGN (0x2)
 *fill*         0x0000000000800263        0x1 
                0x0000000000800264                _edata = .
                0x0000000000800264                PROVIDE (__data_end = .)

.bss            0x0000000000800264      0x187
                0x0000000000800264                PROVIDE (__bss_start = .)
 *(.bss)
 .bss           0x0000000000800264        0x0 /usr/local/Cellar/avr-gcc/9.1.0/lib/avr-gcc/9/gcc/avr/9.1.0/../../../../../../avr/lib/avr5/crtatmega162.o
 .bss           0x0000000000800264        0x4 main.o
                0x0000000000800264                blinktimer
                0x0000000000800265                prev_note
                0x0000000000800266                note_counter
                0x0000000000800267                sync
 .bss           0x0000000000800268        0x0 delay.o
 .bss           0x0000000000800268        0x5 midi.o
                0x0000000000800268                midisync_clocked
                0x000000000080026a                midi_running_status
 .bss           0x000000000080026d        0x8 dinsync.o
                0x000000000080026d                last_dinsync_c
                0x000000000080026e                last_dinsync_stop
                0x000000000080026f                last_dinsync_start
                0x0000000000800270                dinsync_clock_timeout
                0x0000000000800272                dinsync_clocked
                0x0000000000800274                dinsync_counter
 .bss           0x0000000000800275        0x2 switch.o
                0x0000000000800275                debounce_timer
                0x0000000000800276                bank_switched
 .bss           0x0000000000800277        0xa led.o
                0x0000000000800277                blinkleds
                0x000000000080027c                leds
 .bss           0x0000000000800281        0x4 compcontrol.o
                0x0000000000800281                uart_timeout
                0x0000000000800283                valid_msg_in_q
                0x0000000000800284                recv_msg_i
 .bss           0x0000000000800285        0x2 synth.o
                0x0000000000800285                next_pitch_shift
                0x0000000000800286                curr_pitch_shift
 .bss           0x0000000000800287        0x0 keyboard.o
 .bss           0x0000000000800287        0x0 eeprom.o
 .bss           0x0000000000800287        0x0 track_edit.o
 .bss           0x0000000000800287        0x1 pattern_edit.o
                0x0000000000800287                dirtyflag
 .bss           0x0000000000800288        0x8 pattern_play.o
                0x0000000000800288                tap_tempo_timer
                0x000000000080028a                next_bank
                0x000000000080028b                curr_bank
                0x000000000080028c                all_rest
                0x000000000080028d                all_slide
                0x000000000080028e                all_accent
                0x000000000080028f                buff_chain_len
 .bss           0x0000000000800290        0x0 /usr/local/Cellar/avr-gcc/9.1.0/lib/avr-gcc/9/gcc/avr/9.1.0/avr5/libgcc.a(_udivmodhi4.o)
 .bss           0x0000000000800290        0x0 /usr/local/Cellar/avr-gcc/9.1.0/lib/avr-gcc/9/gcc/avr/9.1.0/avr5/libgcc.a(_udivmodsi4.o)
 .bss           0x0000000000800290        0x0 /usr/local/Cellar/avr-gcc/9.1.0/lib/avr-gcc/9/gcc/avr/9.1.0/avr5/libgcc.a(_exit.o)
 .bss           0x0000000000800290        0x0 /usr/local/Cellar/avr-gcc/9.1.0/lib/avr-gcc/9/gcc/avr/9.1.0/avr5/libgcc.a(_tablejump2.o)
 .bss           0x0000000000800290        0x0 /usr/local/Cellar/avr-gcc/9.1.0/lib/avr-gcc/9/gcc/avr/9.1.0/avr5/libgcc.a(_copy_data.o)
 .bss           0x0000000000800290        0x0 /usr/local/Cellar/avr-gcc/9.1.0/lib/avr-gcc/9/gcc/avr/9.1.0/avr5/libgcc.a(_clear_bss.o)
 *(.bss*)
 *(COMMON)
 COMMON         0x0000000000800290        0xa main.o
                0x0000000000800290                next_random_note
                0x0000000000800291                curr_note
                0x0000000000800292                tempo
                0x0000000000800294                newtempo
                0x0000000000800296                rand
                0x0000000000800297                timer3_init
                0x0000000000800299                last_tempo
 COMMON         0x000000000080029a       0x22 midi.o
                0x000000000080029a                midi_out_addr
                0x000000000080029b                midi_q
                0x00000000008002bb                midi_in_addr
 COMMON         0x00000000008002bc       0x10 switch.o
                0x00000000008002bc                last_func
                0x00000000008002bd                last_bank
                0x00000000008002be                pressed_switches
                0x00000000008002c1                function
                0x00000000008002c2                switches
                0x00000000008002c5                released_switches
                0x00000000008002c8                bank
                0x00000000008002c9                last_switches
 COMMON         0x00000000008002cc       0x80 compcontrol.o
                0x00000000008002cc                tx_msg_buff
                0x000000000080030c                recv_msg_buff
 COMMON         0x000000000080034c       0x28 track_edit.o
                0x000000000080034c                track_buff
                0x000000000080036c                play_loaded_track
                0x000000000080036d                track_bank
                0x000000000080036e                curr_patt
                0x0000000000800370                in_run_mode
                0x0000000000800371                in_stepwrite_mode
                0x0000000000800372                track_location
                0x0000000000800373                curr_track_index
 COMMON         0x0000000000800374       0x15 pattern_edit.o
                0x0000000000800374                curr_pattern_index
                0x0000000000800375                in_runwrite_mode
                0x0000000000800376                patt_location
                0x0000000000800377                play_loaded_pattern
                0x0000000000800378                patt_bank
                0x0000000000800379                pattern_buff
 COMMON         0x0000000000800389       0x62 pattern_play.o
                0x0000000000800389                next_chain
                0x00000000008003a9                curr_chain
                0x00000000008003c9                curr_chain_index
                0x00000000008003ca                playing
                0x00000000008003cb                buff_chain
                0x00000000008003eb                PROVIDE (__bss_end = .)
                0x000000000000356a                __data_load_start = LOADADDR (.data)
                0x00000000000036ce                __data_load_end = (__data_load_start + SIZEOF (.data))

.noinit         0x00000000008003eb        0x0
                [!provide]                        PROVIDE (__noinit_start = .)
 *(.noinit*)
                [!provide]                        PROVIDE (__noinit_end = .)
                0x00000000008003eb                _end = .
                [!provide]                        PROVIDE (__heap_start = .)

.eeprom         0x0000000000810000        0x0
 *(.eeprom*)
                0x0000000000810000                __eeprom_end = .

.fuse
 *(.fuse)
 *(.lfuse)
 *(.hfuse)
 *(.efuse)

.lock
 *(.lock*)

.signature
 *(.signature*)

.stab
 *(.stab)

.stabstr
 *(.stabstr)

.stab.excl
 *(.stab.excl)

.stab.exclstr
 *(.stab.exclstr)

.stab.index
 *(.stab.index)

.stab.indexstr
 *(.stab.indexstr)

.comment        0x0000000000000000       0x11
 *(.comment)
 .comment       0x0000000000000000       0x11 main.o
                                         0x12 (size before relaxing)
 .comment       0x0000000000000011       0x12 delay.o
 .comment       0x0000000000000011       0x12 midi.o
 .comment       0x0000000000000011       0x12 dinsync.o
 .comment       0x0000000000000011       0x12 switch.o
 .comment       0x0000000000000011       0x12 led.o
 .comment       0x0000000000000011       0x12 compcontrol.o
 .comment       0x0000000000000011       0x12 synth.o
 .comment       0x0000000000000011       0x12 keyboard.o
 .comment       0x0000000000000011       0x12 eeprom.o
 .comment       0x0000000000000011       0x12 track_edit.o
 .comment       0x0000000000000011       0x12 pattern_edit.o
 .comment       0x0000000000000011       0x12 pattern_play.o

.note.gnu.avr.deviceinfo
                0x0000000000000000       0x3c
 .note.gnu.avr.deviceinfo
                0x0000000000000000       0x3c /usr/local/Cellar/avr-gcc/9.1.0/lib/avr-gcc/9/gcc/avr/9.1.0/../../../../../../avr/lib/avr5/crtatmega162.o

.note.gnu.build-id
 *(.note.gnu.build-id)

.debug
 *(.debug)

.line
 *(.line)

.debug_srcinfo
 *(.debug_srcinfo)

.debug_sfnames
 *(.debug_sfnames)

.debug_aranges  0x0000000000000000      0x268
 *(.debug_aranges)
 .debug_aranges
                0x0000000000000000       0x28 main.o
 .debug_aranges
                0x0000000000000028       0x20 delay.o
 .debug_aranges
                0x0000000000000048       0x20 midi.o
 .debug_aranges
                0x0000000000000068       0x20 dinsync.o
 .debug_aranges
                0x0000000000000088       0x20 switch.o
 .debug_aranges
                0x00000000000000a8       0x20 led.o
 .debug_aranges
                0x00000000000000c8       0x20 compcontrol.o
 .debug_aranges
                0x00000000000000e8       0x20 synth.o
 .debug_aranges
                0x0000000000000108       0x20 keyboard.o
 .debug_aranges
                0x0000000000000128       0x20 eeprom.o
 .debug_aranges
                0x0000000000000148       0x20 track_edit.o
 .debug_aranges
                0x0000000000000168       0x20 pattern_edit.o
 .debug_aranges
                0x0000000000000188       0x20 pattern_play.o
 .debug_aranges
                0x00000000000001a8       0x20 /usr/local/Cellar/avr-gcc/9.1.0/lib/avr-gcc/9/gcc/avr/9.1.0/avr5/libgcc.a(_udivmodhi4.o)
 .debug_aranges
                0x00000000000001c8       0x20 /usr/local/Cellar/avr-gcc/9.1.0/lib/avr-gcc/9/gcc/avr/9.1.0/avr5/libgcc.a(_udivmodsi4.o)
 .debug_aranges
                0x00000000000001e8       0x20 /usr/local/Cellar/avr-gcc/9.1.0/lib/avr-gcc/9/gcc/avr/9.1.0/avr5/libgcc.a(_exit.o)
 .debug_aranges
                0x0000000000000208       0x20 /usr/local/Cellar/avr-gcc/9.1.0/lib/avr-gcc/9/gcc/avr/9.1.0/avr5/libgcc.a(_tablejump2.o)
 .debug_aranges
                0x0000000000000228       0x20 /usr/local/Cellar/avr-gcc/9.1.0/lib/avr-gcc/9/gcc/avr/9.1.0/avr5/libgcc.a(_copy_data.o)
 .debug_aranges
                0x0000000000000248       0x20 /usr/local/Cellar/avr-gcc/9.1.0/lib/avr-gcc/9/gcc/avr/9.1.0/avr5/libgcc.a(_clear_bss.o)

.debug_pubnames
 *(.debug_pubnames)

.debug_info     0x0000000000000000     0x63ed
 *(.debug_info .gnu.linkonce.wi.*)
 .debug_info    0x0000000000000000      0x5d0 /usr/local/Cellar/avr-gcc/9.1.0/lib/avr-gcc/9/gcc/avr/9.1.0/../../../../../../avr/lib/avr5/crtatmega162.o
 .debug_info    0x00000000000005d0      0xc8e main.o
 .debug_info    0x000000000000125e       0xe7 delay.o
 .debug_info    0x0000000000001345      0x7fa midi.o
 .debug_info    0x0000000000001b3f      0x239 dinsync.o
 .debug_info    0x0000000000001d78      0x627 switch.o
 .debug_info    0x000000000000239f      0xd18 led.o
 .debug_info    0x00000000000030b7      0x6de compcontrol.o
 .debug_info    0x0000000000003795      0x1f7 synth.o
 .debug_info    0x000000000000398c      0x3c6 keyboard.o
 .debug_info    0x0000000000003d52      0x1d8 eeprom.o
 .debug_info    0x0000000000003f2a      0xbef track_edit.o
 .debug_info    0x0000000000004b19      0xc91 pattern_edit.o
 .debug_info    0x00000000000057aa      0xb5f pattern_play.o
 .debug_info    0x0000000000006309       0x26 /usr/local/Cellar/avr-gcc/9.1.0/lib/avr-gcc/9/gcc/avr/9.1.0/avr5/libgcc.a(_udivmodhi4.o)
 .debug_info    0x000000000000632f       0x26 /usr/local/Cellar/avr-gcc/9.1.0/lib/avr-gcc/9/gcc/avr/9.1.0/avr5/libgcc.a(_udivmodsi4.o)
 .debug_info    0x0000000000006355       0x26 /usr/local/Cellar/avr-gcc/9.1.0/lib/avr-gcc/9/gcc/avr/9.1.0/avr5/libgcc.a(_exit.o)
 .debug_info    0x000000000000637b       0x26 /usr/local/Cellar/avr-gcc/9.1.0/lib/avr-gcc/9/gcc/avr/9.1.0/avr5/libgcc.a(_tablejump2.o)
 .debug_info    0x00000000000063a1       0x26 /usr/local/Cellar/avr-gcc/9.1.0/lib/avr-gcc/9/gcc/avr/9.1.0/avr5/libgcc.a(_copy_data.o)
 .debug_info    0x00000000000063c7       0x26 /usr/local/Cellar/avr-gcc/9.1.0/lib/avr-gcc/9/gcc/avr/9.1.0/avr5/libgcc.a(_clear_bss.o)

.debug_abbrev   0x0000000000000000     0x1ff9
 *(.debug_abbrev)
 .debug_abbrev  0x0000000000000000      0x580 /usr/local/Cellar/avr-gcc/9.1.0/lib/avr-gcc/9/gcc/avr/9.1.0/../../../../../../avr/lib/avr5/crtatmega162.o
 .debug_abbrev  0x0000000000000580      0x26b main.o
 .debug_abbrev  0x00000000000007eb       0xa4 delay.o
 .debug_abbrev  0x000000000000088f      0x345 midi.o
 .debug_abbrev  0x0000000000000bd4      0x113 dinsync.o
 .debug_abbrev  0x0000000000000ce7      0x270 switch.o
 .debug_abbrev  0x0000000000000f57      0x379 led.o
 .debug_abbrev  0x00000000000012d0      0x27d compcontrol.o
 .debug_abbrev  0x000000000000154d      0x153 synth.o
 .debug_abbrev  0x00000000000016a0      0x10e keyboard.o
 .debug_abbrev  0x00000000000017ae      0x142 eeprom.o
 .debug_abbrev  0x00000000000018f0      0x299 track_edit.o
 .debug_abbrev  0x0000000000001b89      0x219 pattern_edit.o
 .debug_abbrev  0x0000000000001da2      0x1df pattern_play.o
 .debug_abbrev  0x0000000000001f81       0x14 /usr/local/Cellar/avr-gcc/9.1.0/lib/avr-gcc/9/gcc/avr/9.1.0/avr5/libgcc.a(_udivmodhi4.o)
 .debug_abbrev  0x0000000000001f95       0x14 /usr/local/Cellar/avr-gcc/9.1.0/lib/avr-gcc/9/gcc/avr/9.1.0/avr5/libgcc.a(_udivmodsi4.o)
 .debug_abbrev  0x0000000000001fa9       0x14 /usr/local/Cellar/avr-gcc/9.1.0/lib/avr-gcc/9/gcc/avr/9.1.0/avr5/libgcc.a(_exit.o)
 .debug_abbrev  0x0000000000001fbd       0x14 /usr/local/Cellar/avr-gcc/9.1.0/lib/avr-gcc/9/gcc/avr/9.1.0/avr5/libgcc.a(_tablejump2.o)
 .debug_abbrev  0x0000000000001fd1       0x14 /usr/local/Cellar/avr-gcc/9.1.0/lib/avr-gcc/9/gcc/avr/9.1.0/avr5/libgcc.a(_copy_data.o)
 .debug_abbrev  0x0000000000001fe5       0x14 /usr/local/Cellar/avr-gcc/9.1.0/lib/avr-gcc/9/gcc/avr/9.1.0/avr5/libgcc.a(_clear_bss.o)

.debug_line     0x0000000000000000     0x8526
 *(.debug_line .debug_line.* .debug_line_end)
 .debug_line    0x0000000000000000       0x1d /usr/local/Cellar/avr-gcc/9.1.0/lib/avr-gcc/9/gcc/avr/9.1.0/../../../../../../avr/lib/avr5/crtatmega162.o
 .debug_line    0x000000000000001d     0x1a85 main.o
 .debug_line    0x0000000000001aa2       0xa2 delay.o
 .debug_line    0x0000000000001b44      0x870 midi.o
 .debug_line    0x00000000000023b4      0x332 dinsync.o
 .debug_line    0x00000000000026e6      0x8e5 switch.o
 .debug_line    0x0000000000002fcb      0xeb6 led.o
 .debug_line    0x0000000000003e81      0x6f2 compcontrol.o
 .debug_line    0x0000000000004573      0x165 synth.o
 .debug_line    0x00000000000046d8      0x392 keyboard.o
 .debug_line    0x0000000000004a6a      0x425 eeprom.o
 .debug_line    0x0000000000004e8f     0x1093 track_edit.o
 .debug_line    0x0000000000005f22     0x114d pattern_edit.o
 .debug_line    0x000000000000706f     0x10d3 pattern_play.o
 .debug_line    0x0000000000008142       0xcd /usr/local/Cellar/avr-gcc/9.1.0/lib/avr-gcc/9/gcc/avr/9.1.0/avr5/libgcc.a(_udivmodhi4.o)
 .debug_line    0x000000000000820f      0x121 /usr/local/Cellar/avr-gcc/9.1.0/lib/avr-gcc/9/gcc/avr/9.1.0/avr5/libgcc.a(_udivmodsi4.o)
 .debug_line    0x0000000000008330       0x61 /usr/local/Cellar/avr-gcc/9.1.0/lib/avr-gcc/9/gcc/avr/9.1.0/avr5/libgcc.a(_exit.o)
 .debug_line    0x0000000000008391       0x79 /usr/local/Cellar/avr-gcc/9.1.0/lib/avr-gcc/9/gcc/avr/9.1.0/avr5/libgcc.a(_tablejump2.o)
 .debug_line    0x000000000000840a       0x97 /usr/local/Cellar/avr-gcc/9.1.0/lib/avr-gcc/9/gcc/avr/9.1.0/avr5/libgcc.a(_copy_data.o)
 .debug_line    0x00000000000084a1       0x85 /usr/local/Cellar/avr-gcc/9.1.0/lib/avr-gcc/9/gcc/avr/9.1.0/avr5/libgcc.a(_clear_bss.o)

.debug_frame    0x0000000000000000      0xd60
 *(.debug_frame)
 .debug_frame   0x0000000000000000      0x2b0 main.o
 .debug_frame   0x00000000000002b0       0x3c delay.o
 .debug_frame   0x00000000000002ec      0x12c midi.o
 .debug_frame   0x0000000000000418       0x7c dinsync.o
 .debug_frame   0x0000000000000494      0x16c switch.o
 .debug_frame   0x0000000000000600      0x2ec led.o
 .debug_frame   0x00000000000008ec      0x128 compcontrol.o
 .debug_frame   0x0000000000000a14       0x34 synth.o
 .debug_frame   0x0000000000000a48       0x68 keyboard.o
 .debug_frame   0x0000000000000ab0       0x34 eeprom.o
 .debug_frame   0x0000000000000ae4      0x120 track_edit.o
 .debug_frame   0x0000000000000c04       0xec pattern_edit.o
 .debug_frame   0x0000000000000cf0       0x70 pattern_play.o

.debug_str      0x0000000000000000     0x1015
 *(.debug_str)
 .debug_str     0x0000000000000000      0x1f6 /usr/local/Cellar/avr-gcc/9.1.0/lib/avr-gcc/9/gcc/avr/9.1.0/../../../../../../avr/lib/avr5/crtatmega162.o
 .debug_str     0x00000000000001f6      0x5f3 main.o
                                        0x688 (size before relaxing)
 .debug_str     0x00000000000007e9       0x2f delay.o
                                         0xf2 (size before relaxing)
 .debug_str     0x0000000000000818      0x125 midi.o
                                        0x39d (size before relaxing)
 .debug_str     0x000000000000093d       0x6d dinsync.o
                                        0x263 (size before relaxing)
 .debug_str     0x00000000000009aa      0x173 switch.o
                                        0x344 (size before relaxing)
 .debug_str     0x0000000000000b1d      0x1dd led.o
                                        0x3de (size before relaxing)
 .debug_str     0x0000000000000cfa       0x9b compcontrol.o
                                        0x2a9 (size before relaxing)
 .debug_str     0x0000000000000d95        0x8 synth.o
                                        0x198 (size before relaxing)
 .debug_str     0x0000000000000d9d        0xb keyboard.o
                                        0x2be (size before relaxing)
 .debug_str     0x0000000000000da8        0x9 eeprom.o
                                        0x186 (size before relaxing)
 .debug_str     0x0000000000000db1       0xe8 track_edit.o
                                        0x522 (size before relaxing)
 .debug_str     0x0000000000000e99       0xc4 pattern_edit.o
                                        0x49a (size before relaxing)
 .debug_str     0x0000000000000f5d       0x37 pattern_play.o
                                        0x5cf (size before relaxing)
 .debug_str     0x0000000000000f94       0x81 /usr/local/Cellar/avr-gcc/9.1.0/lib/avr-gcc/9/gcc/avr/9.1.0/avr5/libgcc.a(_udivmodhi4.o)
 .debug_str     0x0000000000001015       0x81 /usr/local/Cellar/avr-gcc/9.1.0/lib/avr-gcc/9/gcc/avr/9.1.0/avr5/libgcc.a(_udivmodsi4.o)
 .debug_str     0x0000000000001015       0x81 /usr/local/Cellar/avr-gcc/9.1.0/lib/avr-gcc/9/gcc/avr/9.1.0/avr5/libgcc.a(_exit.o)
 .debug_str     0x0000000000001015       0x81 /usr/local/Cellar/avr-gcc/9.1.0/lib/avr-gcc/9/gcc/avr/9.1.0/avr5/libgcc.a(_tablejump2.o)
 .debug_str     0x0000000000001015       0x81 /usr/local/Cellar/avr-gcc/9.1.0/lib/avr-gcc/9/gcc/avr/9.1.0/avr5/libgcc.a(_copy_data.o)
 .debug_str     0x0000000000001015       0x81 /usr/local/Cellar/avr-gcc/9.1.0/lib/avr-gcc/9/gcc/avr/9.1.0/avr5/libgcc.a(_clear_bss.o)

.debug_loc      0x0000000000000000     0x2556
 *(.debug_loc)
 .debug_loc     0x0000000000000000      0x3f6 main.o
 .debug_loc     0x00000000000003f6       0x2f delay.o
 .debug_loc     0x0000000000000425      0x35a midi.o
 .debug_loc     0x000000000000077f       0x88 dinsync.o
 .debug_loc     0x0000000000000807      0x3d9 switch.o
 .debug_loc     0x0000000000000be0      0xa3b led.o
 .debug_loc     0x000000000000161b      0x3a5 compcontrol.o
 .debug_loc     0x00000000000019c0       0xff synth.o
 .debug_loc     0x0000000000001abf      0x122 keyboard.o
 .debug_loc     0x0000000000001be1       0x54 eeprom.o
 .debug_loc     0x0000000000001c35      0x272 track_edit.o
 .debug_loc     0x0000000000001ea7      0x355 pattern_edit.o
 .debug_loc     0x00000000000021fc      0x35a pattern_play.o

.debug_macinfo
 *(.debug_macinfo)

.debug_weaknames
 *(.debug_weaknames)

.debug_funcnames
 *(.debug_funcnames)

.debug_typenames
 *(.debug_typenames)

.debug_varnames
 *(.debug_varnames)

.debug_pubtypes
 *(.debug_pubtypes)

.debug_ranges   0x0000000000000000      0x100
 *(.debug_ranges)
 .debug_ranges  0x0000000000000000       0x18 main.o
 .debug_ranges  0x0000000000000018       0x60 led.o
 .debug_ranges  0x0000000000000078       0x38 track_edit.o
 .debug_ranges  0x00000000000000b0       0x38 pattern_edit.o
 .debug_ranges  0x00000000000000e8       0x18 pattern_play.o

.debug_macro
 *(.debug_macro)

.debug_addr
 *(.debug_addr)
OUTPUT(x0xb0x.elf elf32-avr)
LOAD linker stubs

Cross Reference Table

Symbol                                            File
CRC8Table                                         compcontrol.o
CTS                                               compcontrol.o
__bad_interrupt                                   /usr/local/Cellar/avr-gcc/9.1.0/lib/avr-gcc/9/gcc/avr/9.1.0/../../../../../../avr/lib/avr5/crtatmega162.o
__bss_end                                         /usr/local/Cellar/avr-gcc/9.1.0/lib/avr-gcc/9/gcc/avr/9.1.0/avr5/libgcc.a(_clear_bss.o)
__bss_start                                       /usr/local/Cellar/avr-gcc/9.1.0/lib/avr-gcc/9/gcc/avr/9.1.0/avr5/libgcc.a(_clear_bss.o)
__data_end                                        /usr/local/Cellar/avr-gcc/9.1.0/lib/avr-gcc/9/gcc/avr/9.1.0/avr5/libgcc.a(_copy_data.o)
__data_load_start                                 /usr/local/Cellar/avr-gcc/9.1.0/lib/avr-gcc/9/gcc/avr/9.1.0/avr5/libgcc.a(_copy_data.o)
__data_start                                      /usr/local/Cellar/avr-gcc/9.1.0/lib/avr-gcc/9/gcc/avr/9.1.0/avr5/libgcc.a(_copy_data.o)
__do_clear_bss                                    /usr/local/Cellar/avr-gcc/9.1.0/lib/avr-gcc/9/gcc/avr/9.1.0/avr5/libgcc.a(_clear_bss.o)
                                                  pattern_play.o
                                                  pattern_edit.o
                                                  track_edit.o
                                                  synth.o
                                                  compcontrol.o
                                                  led.o
                                                  switch.o
                                                  dinsync.o
                                                  midi.o
                                                  main.o
__do_copy_data                                    /usr/local/Cellar/avr-gcc/9.1.0/lib/avr-gcc/9/gcc/avr/9.1.0/avr5/libgcc.a(_copy_data.o)
                                                  keyboard.o
                                                  compcontrol.o
                                                  led.o
                                                  switch.o
                                                  midi.o
__heap_end                                        /usr/local/Cellar/avr-gcc/9.1.0/lib/avr-gcc/9/gcc/avr/9.1.0/../../../../../../avr/lib/avr5/crtatmega162.o
__init                                            /usr/local/Cellar/avr-gcc/9.1.0/lib/avr-gcc/9/gcc/avr/9.1.0/../../../../../../avr/lib/avr5/crtatmega162.o
__stack                                           /usr/local/Cellar/avr-gcc/9.1.0/lib/avr-gcc/9/gcc/avr/9.1.0/../../../../../../avr/lib/avr5/crtatmega162.o
__tablejump2__                                    /usr/local/Cellar/avr-gcc/9.1.0/lib/avr-gcc/9/gcc/avr/9.1.0/avr5/libgcc.a(_tablejump2.o)
                                                  main.o
__udivmodhi4                                      /usr/local/Cellar/avr-gcc/9.1.0/lib/avr-gcc/9/gcc/avr/9.1.0/avr5/libgcc.a(_udivmodhi4.o)
                                                  pattern_play.o
                                                  main.o
__udivmodsi4                                      /usr/local/Cellar/avr-gcc/9.1.0/lib/avr-gcc/9/gcc/avr/9.1.0/avr5/libgcc.a(_udivmodsi4.o)
                                                  main.o
__vector_1                                        /usr/local/Cellar/avr-gcc/9.1.0/lib/avr-gcc/9/gcc/avr/9.1.0/../../../../../../avr/lib/avr5/crtatmega162.o
__vector_10                                       /usr/local/Cellar/avr-gcc/9.1.0/lib/avr-gcc/9/gcc/avr/9.1.0/../../../../../../avr/lib/avr5/crtatmega162.o
__vector_11                                       /usr/local/Cellar/avr-gcc/9.1.0/lib/avr-gcc/9/gcc/avr/9.1.0/../../../../../../avr/lib/avr5/crtatmega162.o
__vector_12                                       /usr/local/Cellar/avr-gcc/9.1.0/lib/avr-gcc/9/gcc/avr/9.1.0/../../../../../../avr/lib/avr5/crtatmega162.o
__vector_13                                       /usr/local/Cellar/avr-gcc/9.1.0/lib/avr-gcc/9/gcc/avr/9.1.0/../../../../../../avr/lib/avr5/crtatmega162.o
__vector_14                                       /usr/local/Cellar/avr-gcc/9.1.0/lib/avr-gcc/9/gcc/avr/9.1.0/../../../../../../avr/lib/avr5/crtatmega162.o
__vector_15                                       /usr/local/Cellar/avr-gcc/9.1.0/lib/avr-gcc/9/gcc/avr/9.1.0/../../../../../../avr/lib/avr5/crtatmega162.o
__vector_16                                       main.o
                                                  /usr/local/Cellar/avr-gcc/9.1.0/lib/avr-gcc/9/gcc/avr/9.1.0/../../../../../../avr/lib/avr5/crtatmega162.o
__vector_17                                       /usr/local/Cellar/avr-gcc/9.1.0/lib/avr-gcc/9/gcc/avr/9.1.0/../../../../../../avr/lib/avr5/crtatmega162.o
__vector_18                                       /usr/local/Cellar/avr-gcc/9.1.0/lib/avr-gcc/9/gcc/avr/9.1.0/../../../../../../avr/lib/avr5/crtatmega162.o
__vector_19                                       midi.o
                                                  /usr/local/Cellar/avr-gcc/9.1.0/lib/avr-gcc/9/gcc/avr/9.1.0/../../../../../../avr/lib/avr5/crtatmega162.o
__vector_2                                        /usr/local/Cellar/avr-gcc/9.1.0/lib/avr-gcc/9/gcc/avr/9.1.0/../../../../../../avr/lib/avr5/crtatmega162.o
__vector_20                                       compcontrol.o
                                                  /usr/local/Cellar/avr-gcc/9.1.0/lib/avr-gcc/9/gcc/avr/9.1.0/../../../../../../avr/lib/avr5/crtatmega162.o
__vector_21                                       /usr/local/Cellar/avr-gcc/9.1.0/lib/avr-gcc/9/gcc/avr/9.1.0/../../../../../../avr/lib/avr5/crtatmega162.o
__vector_22                                       /usr/local/Cellar/avr-gcc/9.1.0/lib/avr-gcc/9/gcc/avr/9.1.0/../../../../../../avr/lib/avr5/crtatmega162.o
__vector_23                                       /usr/local/Cellar/avr-gcc/9.1.0/lib/avr-gcc/9/gcc/avr/9.1.0/../../../../../../avr/lib/avr5/crtatmega162.o
__vector_24                                       /usr/local/Cellar/avr-gcc/9.1.0/lib/avr-gcc/9/gcc/avr/9.1.0/../../../../../../avr/lib/avr5/crtatmega162.o
__vector_25                                       /usr/local/Cellar/avr-gcc/9.1.0/lib/avr-gcc/9/gcc/avr/9.1.0/../../../../../../avr/lib/avr5/crtatmega162.o
__vector_26                                       /usr/local/Cellar/avr-gcc/9.1.0/lib/avr-gcc/9/gcc/avr/9.1.0/../../../../../../avr/lib/avr5/crtatmega162.o
__vector_27                                       /usr/local/Cellar/avr-gcc/9.1.0/lib/avr-gcc/9/gcc/avr/9.1.0/../../../../../../avr/lib/avr5/crtatmega162.o
__vector_3                                        /usr/local/Cellar/avr-gcc/9.1.0/lib/avr-gcc/9/gcc/avr/9.1.0/../../../../../../avr/lib/avr5/crtatmega162.o
__vector_4                                        main.o
                                                  /usr/local/Cellar/avr-gcc/9.1.0/lib/avr-gcc/9/gcc/avr/9.1.0/../../../../../../avr/lib/avr5/crtatmega162.o
__vector_5                                        /usr/local/Cellar/avr-gcc/9.1.0/lib/avr-gcc/9/gcc/avr/9.1.0/../../../../../../avr/lib/avr5/crtatmega162.o
__vector_6                                        /usr/local/Cellar/avr-gcc/9.1.0/lib/avr-gcc/9/gcc/avr/9.1.0/../../../../../../avr/lib/avr5/crtatmega162.o
__vector_7                                        /usr/local/Cellar/avr-gcc/9.1.0/lib/avr-gcc/9/gcc/avr/9.1.0/../../../../../../avr/lib/avr5/crtatmega162.o
__vector_8                                        /usr/local/Cellar/avr-gcc/9.1.0/lib/avr-gcc/9/gcc/avr/9.1.0/../../../../../../avr/lib/avr5/crtatmega162.o
__vector_9                                        main.o
                                                  /usr/local/Cellar/avr-gcc/9.1.0/lib/avr-gcc/9/gcc/avr/9.1.0/../../../../../../avr/lib/avr5/crtatmega162.o
__vector_default                                  /usr/local/Cellar/avr-gcc/9.1.0/lib/avr-gcc/9/gcc/avr/9.1.0/../../../../../../avr/lib/avr5/crtatmega162.o
__vectors                                         /usr/local/Cellar/avr-gcc/9.1.0/lib/avr-gcc/9/gcc/avr/9.1.0/../../../../../../avr/lib/avr5/crtatmega162.o
_exit                                             /usr/local/Cellar/avr-gcc/9.1.0/lib/avr-gcc/9/gcc/avr/9.1.0/avr5/libgcc.a(_exit.o)
all_accent                                        pattern_play.o
                                                  track_edit.o
                                                  main.o
all_rest                                          pattern_play.o
                                                  track_edit.o
                                                  main.o
all_slide                                         pattern_play.o
                                                  track_edit.o
                                                  main.o
bank                                              switch.o
                                                  pattern_play.o
                                                  pattern_edit.o
                                                  track_edit.o
                                                  keyboard.o
                                                  midi.o
bank_switched                                     switch.o
blink_leds_off                                    led.o
                                                  main.o
blink_leds_on                                     led.o
                                                  main.o
blinkleds                                         led.o
blinktimer                                        main.o
buff_chain                                        pattern_play.o
buff_chain_len                                    pattern_play.o
calc_CRC8                                         compcontrol.o
chains_equiv                                      pattern_play.o
                                                  main.o
change_tempo                                      main.o
                                                  pattern_play.o
                                                  compcontrol.o
                                                  switch.o
clear_all_leds                                    led.o
                                                  pattern_play.o
                                                  pattern_edit.o
                                                  track_edit.o
                                                  compcontrol.o
                                                  main.o
clear_bank_leds                                   led.o
                                                  pattern_play.o
                                                  pattern_edit.o
                                                  track_edit.o
                                                  keyboard.o
                                                  compcontrol.o
                                                  midi.o
                                                  main.o
clear_blinking_leds                               led.o
                                                  pattern_play.o
                                                  pattern_edit.o
                                                  track_edit.o
                                                  main.o
clear_key_led                                     led.o
clear_key_leds                                    led.o
                                                  pattern_edit.o
clear_led                                         led.o
                                                  pattern_play.o
                                                  pattern_edit.o
                                                  track_edit.o
                                                  keyboard.o
                                                  main.o
clear_led_blink                                   led.o
                                                  pattern_edit.o
clear_note_leds                                   led.o
                                                  pattern_edit.o
                                                  track_edit.o
clear_notekey_led                                 led.o
                                                  keyboard.o
clear_notekey_leds                                led.o
                                                  pattern_play.o
                                                  pattern_edit.o
                                                  track_edit.o
                                                  keyboard.o
                                                  main.o
clear_numkey_led                                  led.o
                                                  pattern_play.o
clear_numkey_leds                                 led.o
                                                  pattern_play.o
                                                  track_edit.o
clock_leds                                        led.o
                                                  pattern_play.o
                                                  pattern_edit.o
                                                  track_edit.o
                                                  compcontrol.o
                                                  switch.o
                                                  main.o
curr_bank                                         pattern_play.o
                                                  main.o
curr_chain                                        pattern_play.o
                                                  main.o
curr_chain_index                                  pattern_play.o
                                                  main.o
curr_note                                         main.o
                                                  pattern_play.o
                                                  pattern_edit.o
                                                  track_edit.o
curr_patt                                         track_edit.o
                                                  pattern_play.o
                                                  main.o
curr_pattern_index                                pattern_edit.o
                                                  pattern_play.o
                                                  track_edit.o
                                                  main.o
curr_pitch_shift                                  synth.o
                                                  pattern_play.o
                                                  track_edit.o
                                                  main.o
curr_track_index                                  track_edit.o
                                                  pattern_play.o
                                                  main.o
debounce_timer                                    switch.o
                                                  main.o
delay_ms                                          delay.o
                                                  pattern_edit.o
                                                  dinsync.o
                                                  midi.o
                                                  main.o
delay_s                                           delay.o
dinsync_clock_timeout                             dinsync.o
                                                  midi.o
                                                  main.o
dinsync_clocked                                   dinsync.o
                                                  pattern_play.o
                                                  main.o
dinsync_counter                                   dinsync.o
                                                  pattern_play.o
                                                  main.o
dinsync_set_in                                    dinsync.o
                                                  pattern_play.o
dinsync_set_out                                   dinsync.o
                                                  pattern_play.o
                                                  pattern_edit.o
                                                  main.o
dinsync_start                                     dinsync.o
                                                  pattern_play.o
dinsync_started                                   dinsync.o
                                                  pattern_play.o
dinsync_stop                                      dinsync.o
                                                  pattern_play.o
                                                  pattern_edit.o
dinsync_stopped                                   dinsync.o
                                                  pattern_play.o
dirtyflag                                         pattern_edit.o
display_curr_pitch_shift_ud                       track_edit.o
                                                  pattern_play.o
display_octave_shift                              led.o
                                                  keyboard.o
do_computer_control                               compcontrol.o
                                                  main.o
do_keyboard_mode                                  keyboard.o
                                                  main.o
do_midi_mode                                      midi.o
                                                  main.o
do_pattern_edit                                   pattern_edit.o
                                                  main.o
do_patterntrack_play                              pattern_play.o
                                                  main.o
do_tempo                                          main.o
                                                  pattern_play.o
                                                  pattern_edit.o
do_track_edit                                     track_edit.o
                                                  main.o
exit                                              /usr/local/Cellar/avr-gcc/9.1.0/lib/avr-gcc/9/gcc/avr/9.1.0/avr5/libgcc.a(_exit.o)
                                                  /usr/local/Cellar/avr-gcc/9.1.0/lib/avr-gcc/9/gcc/avr/9.1.0/../../../../../../avr/lib/avr5/crtatmega162.o
function                                          switch.o
                                                  pattern_play.o
                                                  pattern_edit.o
                                                  track_edit.o
                                                  keyboard.o
                                                  compcontrol.o
                                                  midi.o
                                                  main.o
get_lowest_notekey_pressed                        switch.o
                                                  pattern_play.o
                                                  track_edit.o
get_lowest_numkey_just_pressed                    switch.o
                                                  pattern_play.o
                                                  track_edit.o
get_lowest_numkey_pressed                         switch.o
                                                  pattern_play.o
                                                  pattern_edit.o
                                                  track_edit.o
get_midi_addr                                     midi.o
get_pitchshift_from_patt                          track_edit.o
                                                  main.o
has_bank_knob_changed                             switch.o
                                                  pattern_play.o
                                                  track_edit.o
                                                  keyboard.o
in_run_mode                                       track_edit.o
in_runwrite_mode                                  pattern_edit.o
in_stepwrite_mode                                 pattern_edit.o
                                                  track_edit.o
init_midi                                         midi.o
                                                  main.o
init_tempo                                        main.o
init_timer0                                       main.o
init_timer2                                       main.o
internal_eeprom_read8                             main.o
                                                  midi.o
internal_eeprom_write8                            main.o
                                                  keyboard.o
                                                  midi.o
ioinit                                            main.o
is_bank_led_blink                                 led.o
                                                  track_edit.o
is_bank_led_set                                   led.o
                                                  keyboard.o
is_led_blink                                      led.o
is_led_set                                        led.o
is_notekey_led_blink                              led.o
                                                  pattern_play.o
is_numkey_led_blink                               led.o
                                                  pattern_play.o
is_numkey_led_set                                 led.o
is_pressed                                        switch.o
                                                  pattern_play.o
                                                  track_edit.o
is_tempo_running                                  main.o
                                                  dinsync.o
just_pressed                                      switch.o
                                                  pattern_play.o
                                                  pattern_edit.o
                                                  track_edit.o
                                                  keyboard.o
just_released                                     switch.o
                                                  pattern_play.o
                                                  pattern_edit.o
                                                  track_edit.o
                                                  keyboard.o
last_bank                                         switch.o
last_dinsync_c                                    dinsync.o
                                                  main.o
last_dinsync_start                                dinsync.o
last_dinsync_stop                                 dinsync.o
last_func                                         switch.o
last_switches                                     switch.o
last_tempo                                        switch.o
                                                  main.o
leds                                              led.o
load_curr_patt                                    track_edit.o
                                                  pattern_play.o
                                                  main.o
load_pattern                                      pattern_edit.o
                                                  pattern_play.o
                                                  track_edit.o
                                                  main.o
load_track                                        track_edit.o
                                                  pattern_play.o
                                                  main.o
main                                              main.o
                                                  /usr/local/Cellar/avr-gcc/9.1.0/lib/avr-gcc/9/gcc/avr/9.1.0/../../../../../../avr/lib/avr5/crtatmega162.o
midi_getch                                        midi.o
                                                  pattern_play.o
midi_getchar                                      midi.o
                                                  pattern_play.o
midi_in_addr                                      midi.o
                                                  pattern_play.o
midi_note_off                                     midi.o
midi_note_on                                      midi.o
midi_notesoff                                     midi.o
                                                  keyboard.o
midi_out_addr                                     midi.o
                                                  keyboard.o
midi_putchar                                      midi.o
                                                  pattern_play.o
                                                  pattern_edit.o
                                                  main.o
midi_q                                            midi.o
midi_recv_cmd                                     midi.o
                                                  pattern_play.o
                                                  pattern_edit.o
midi_running_status                               midi.o
midi_send_note_off                                midi.o
                                                  keyboard.o
                                                  main.o
midi_send_note_on                                 midi.o
                                                  keyboard.o
                                                  main.o
midi_stop                                         midi.o
                                                  pattern_play.o
                                                  pattern_edit.o
midioff_velocity                                  midi.o
midion_accent_velocity                            midi.o
midion_noaccent_velocity                          midi.o
midisync_clocked                                  midi.o
                                                  pattern_play.o
                                                  pattern_edit.o
newtempo                                          main.o
                                                  switch.o
next_bank                                         pattern_play.o
                                                  main.o
next_chain                                        pattern_play.o
                                                  main.o
next_pitch_shift                                  synth.o
                                                  pattern_play.o
                                                  main.o
next_random_note                                  main.o
no_keys_pressed                                   switch.o
                                                  keyboard.o
note_counter                                      main.o
                                                  pattern_edit.o
                                                  pattern_play.o
                                                  track_edit.o
                                                  dinsync.o
note_off                                          synth.o
                                                  pattern_play.o
                                                  pattern_edit.o
                                                  track_edit.o
                                                  keyboard.o
                                                  midi.o
                                                  main.o
note_on                                           synth.o
                                                  pattern_edit.o
                                                  keyboard.o
                                                  midi.o
                                                  main.o
patt_bank                                         pattern_edit.o
patt_location                                     pattern_edit.o
pattern_buff                                      pattern_edit.o
                                                  main.o
play_loaded_pattern                               pattern_edit.o
                                                  track_edit.o
                                                  main.o
play_loaded_track                                 track_edit.o
                                                  main.o
playing                                           pattern_play.o
                                                  pattern_edit.o
                                                  main.o
pressed_switches                                  switch.o
prev_note                                         main.o
                                                  midi.o
printhex                                          main.o
putnum_ud                                         main.o
putnum_uh                                         main.o
                                                  pattern_edit.o
                                                  compcontrol.o
putstring                                         main.o
rand                                              main.o
random                                            main.o
                                                  pattern_edit.o
read_bank                                         switch.o
read_function                                     switch.o
read_keypad                                       switch.o
read_switches                                     switch.o
                                                  pattern_play.o
                                                  pattern_edit.o
                                                  track_edit.o
                                                  keyboard.o
                                                  compcontrol.o
                                                  midi.o
                                                  main.o
recv_msg_buff                                     compcontrol.o
recv_msg_i                                        compcontrol.o
released_switches                                 switch.o
select_bank_read                                  switch.o
select_func_read                                  switch.o
send_msg                                          compcontrol.o
send_status                                       compcontrol.o
send_tempo                                        compcontrol.o
                                                  main.o
set_bank_led                                      led.o
                                                  pattern_play.o
                                                  pattern_edit.o
                                                  track_edit.o
                                                  keyboard.o
                                                  midi.o
                                                  main.o
set_bank_led_blink                                led.o
                                                  track_edit.o
set_key_led                                       led.o
set_key_led_blink                                 led.o
set_led                                           led.o
                                                  pattern_play.o
                                                  pattern_edit.o
                                                  track_edit.o
                                                  keyboard.o
                                                  main.o
set_led_blink                                     led.o
                                                  pattern_edit.o
set_note_led                                      led.o
                                                  pattern_edit.o
                                                  main.o
set_notekey_led                                   led.o
                                                  pattern_play.o
                                                  keyboard.o
set_notekey_led_blink                             led.o
                                                  pattern_play.o
                                                  track_edit.o
set_numkey_led                                    led.o
                                                  pattern_play.o
                                                  pattern_edit.o
                                                  track_edit.o
set_numkey_led_blink                              led.o
                                                  pattern_play.o
set_single_numkey_led                             led.o
                                                  track_edit.o
spieeprom_read                                    eeprom.o
                                                  pattern_edit.o
                                                  track_edit.o
                                                  compcontrol.o
spieeprom_write                                   eeprom.o
                                                  pattern_edit.o
                                                  track_edit.o
                                                  compcontrol.o
start_runwrite_mode                               pattern_edit.o
start_stepwrite_mode                              pattern_edit.o
start_track_run_mode                              track_edit.o
start_track_stepwrite_mode                        track_edit.o
stop_runwrite_mode                                pattern_edit.o
stop_stepwrite_mode                               pattern_edit.o
stop_track_run_mode                               track_edit.o
stop_track_stepwrite_mode                         track_edit.o
switches                                          switch.o
sync                                              main.o
                                                  pattern_play.o
                                                  pattern_edit.o
                                                  track_edit.o
                                                  dinsync.o
                                                  midi.o
tap_tempo_timer                                   pattern_play.o
                                                  main.o
tempo                                             main.o
                                                  compcontrol.o
                                                  switch.o
timer3_init                                       main.o
                                                  dinsync.o
track_bank                                        track_edit.o
track_buff                                        track_edit.o
                                                  pattern_play.o
                                                  main.o
track_location                                    track_edit.o
turn_off_tempo                                    main.o
                                                  pattern_play.o
                                                  pattern_edit.o
                                                  track_edit.o
                                                  keyboard.o
                                                  dinsync.o
                                                  midi.o
turn_on_tempo                                     main.o
                                                  pattern_play.o
                                                  pattern_edit.o
                                                  track_edit.o
                                                  dinsync.o
tx_msg_buff                                       compcontrol.o
uart_getch                                        main.o
uart_getchar                                      main.o
uart_putchar                                      main.o
                                                  compcontrol.o
uart_timeout                                      compcontrol.o
                                                  main.o
valid_msg_in_q                                    compcontrol.o
write_pattern                                     pattern_edit.o
write_track                                       track_edit.o
